(dp0
S'Glia'
p1
(dp2
S'3922'
p3
I1
sS'10407?0.9699783742526397'
p4
I1
sS'79674'
p5
I1
sS'37162?0.34174508126603936'
p6
I3
sS'59729'
p7
I1
sS'10141'
p8
I3
sS'10116'
p9
I260
sS'8305'
p10
I2
sS'9031'
p11
I4
sS'31192'
p12
I1
sS'10368'
p13
I1
sS'7227'
p14
I3
sS'7130'
p15
I2
sS'12721?0.9873544761140104'
p16
I12
sS'139'
p17
I3
sS'11676'
p18
I4
sS'10535'
p19
I1
sS'1313'
p20
I1
sS'10090?0.3754925237595992'
p21
I127
sS'9913'
p22
I5
sS'4679'
p23
I1
sS'11072'
p24
I1
sS'11234'
p25
I2
sS'99490?0.0493339911198816'
p26
I1
sS'11292'
p27
I1
sS'138334'
p28
I1
sS'12721'
p29
I6
sS'405018'
p30
I1
sS'9544'
p31
I5
sS'9685'
p32
I2
sS'3483'
p33
I3
sS'1773'
p34
I1
sS'138950'
p35
I1
sS'12167?0.09016393442622951'
p36
I1
sS'9606'
p37
I177
sS'10298?0.9377676277476449'
p38
I3
sS'562'
p39
I4
sS'10359'
p40
I1
sS'1491'
p41
I1
sS'11276'
p42
I1
sS'9823'
p43
I3
sS'487'
p44
I3
sS'9860'
p45
I1
sS'3659'
p46
I1
sS'10298'
p47
I1
sS'8355'
p48
I1
sS'9669'
p49
I1
sS'1280'
p50
I3
sS'4932'
p51
I1
sS'10090'
p52
I192
sS'31931'
p53
I5
sS'6421'
p54
I4
sS'10095'
p55
I11
sS'11676?0.8769782024484921'
p56
I18
sS'458696'
p57
I2
sS'10368?0.8761061946902655'
p58
I2
sS'4076'
p59
I1
sS'7955'
p60
I4
sS'29546?0.0015368852459016393'
p61
I2
sS'39059'
p62
I2
sS'6239'
p63
I1
sS'3704'
p64
I2
sS'9986'
p65
I4
sS'7460'
p66
I1
sS'10632'
p67
I2
sS'61674'
p68
I1
ssS'Nature neuroscience'
p69
(dp70
S'10141'
p71
I3
sS'272636'
p72
I1
sS'8364'
p73
I1
sS'59729'
p74
I3
sS'10047'
p75
I1
sS'7957'
p76
I3
sS'9986'
p77
I2
sS'7955'
p78
I16
sS'9031'
p79
I13
sS'3067'
p80
I1
sS'9598'
p81
I1
sS'7227'
p82
I36
sS'9860'
p83
I2
sS'8400'
p84
I2
sS'7130'
p85
I1
sS'41568'
p86
I1
sS'10535'
p87
I1
sS'10090?0.3754925237595992'
p88
I160
sS'9913'
p89
I2
sS'4679'
p90
I1
sS'13443'
p91
I2
sS'128608'
p92
I1
sS'43179'
p93
I1
sS'405018'
p94
I2
sS'341683'
p95
I1
sS'9544'
p96
I17
sS'9685'
p97
I22
sS'10029'
p98
I1
sS'4097'
p99
I1
sS'9606'
p100
I218
sS'3483'
p101
I1
sS'4932'
p102
I1
sS'435638'
p103
I1
sS'11292'
p104
I1
sS'36674'
p105
I1
sS'38020'
p106
I2
sS'9823'
p107
I2
sS'10116'
p108
I255
sS'185542'
p109
I1
sS'9483'
p110
I1
sS'8355'
p111
I12
sS'9669'
p112
I7
sS'314391?3.3971100299673635E-4'
p113
I5
sS'9395'
p114
I1
sS'10090'
p115
I209
sS'31931'
p116
I2
sS'6421'
p117
I2
sS'10095'
p118
I7
sS'7373'
p119
I1
sS'4682'
p120
I1
sS'111938'
p121
I1
sS'8305'
p122
I1
sS'64279?0.15384615384615385'
p123
I2
sS'39395'
p124
I1
sS'7757'
p125
I1
sS'6239'
p126
I29
sS'9796'
p127
I1
sS'10804'
p128
I1
ssS'Brain, behavior and evolution'
p129
(dp130
S'8422'
p131
I3
sS'9823'
p132
I1
sS'10068'
p133
I1
sS'59729'
p134
I4
sS'71179'
p135
I1
sS'8153'
p136
I2
sS'27779'
p137
I4
sS'7957'
p138
I4
sS'8022'
p139
I2
sS'7955'
p140
I4
sS'9778'
p141
I2
sS'123417?0.171021377672209'
p142
I1
sS'84782'
p143
I1
sS'9678'
p144
I1
sS'8090'
p145
I2
sS'30422'
p146
I1
sS'9283'
p147
I2
sS'30427'
p148
I1
sS'13489'
p149
I1
sS'8715'
p150
I1
sS'30501'
p151
I1
sS'4230'
p152
I1
sS'9685'
p153
I2
sS'8801'
p154
I2
sS'54601'
p155
I1
sS'9275'
p156
I1
sS'10058'
p157
I2
sS'40157'
p158
I1
sS'70853'
p159
I1
sS'9375'
p160
I1
sS'259920'
p161
I1
sS'219752'
p162
I1
sS'38041'
p163
I3
sS'4565'
p164
I1
sS'10116'
p165
I4
sS'80836'
p166
I1
sS'9172'
p167
I2
sS'9668'
p168
I1
sS'8384'
p169
I1
sS'286419'
p170
I1
sS'13735'
p171
I1
sS'13397'
p172
I2
sS'30611'
p173
I1
sS'7897'
p174
I2
sS'91607'
p175
I2
sS'7892'
p176
I4
sS'7116'
p177
I1
sS'9261'
p178
I3
sS'158451'
p179
I1
sS'10042'
p180
I2
sS'9014'
p181
I1
sS'93934'
p182
I2
sS'9718'
p183
I1
sS'9657'
p184
I1
sS'60746'
p185
I1
sS'9305'
p186
I1
sS'8321'
p187
I1
sS'9302'
p188
I1
sS'9913'
p189
I1
sS'9720'
p190
I1
sS'13146'
p191
I1
sS'13616'
p192
I4
sS'79684'
p193
I3
sS'76066'
p194
I4
sS'9785'
p195
I1
sS'67771'
p196
I1
sS'9544'
p197
I1
sS'67773'
p198
I1
sS'7886'
p199
I1
sS'8932'
p200
I3
sS'9258'
p201
I7
sS'40217'
p202
I1
sS'9728'
p203
I3
sS'48891'
p204
I1
sS'9315'
p205
I4
sS'184468'
p206
I1
sS'7904'
p207
I1
sS'8355'
p208
I5
sS'70862'
p209
I10
sS'7781'
p210
I1
sS'48849'
p211
I1
sS'8895'
p212
I1
sS'6500'
p213
I2
sS'7719'
p214
I1
sS'64459'
p215
I1
sS'137246'
p216
I1
sS'30308'
p217
I1
sS'7830'
p218
I1
sS'9031'
p219
I9
sS'83971'
p220
I2
sS'7797'
p221
I1
sS'10090?0.3754925237595992'
p222
I6
sS'10036'
p223
I1
sS'96903'
p224
I1
sS'42645'
p225
I1
sS'48723'
p226
I1
sS'8496'
p227
I1
sS'9135'
p228
I1
sS'8066'
p229
I1
sS'118251'
p230
I1
sS'283763'
p231
I1
sS'8265'
p232
I1
sS'7757'
p233
I2
sS'88450'
p234
I2
sS'3885'
p235
I1
sS'10090'
p236
I7
sS'10094'
p237
I1
sS'101204'
p238
I1
sS'185739'
p239
I1
sS'163112'
p240
I1
sS'9689'
p241
I1
sS'8839'
p242
I2
sS'9438'
p243
I2
sS'47245'
p244
I2
sS'6693'
p245
I2
sS'44391'
p246
I1
sS'4456'
p247
I3
sS'31138'
p248
I2
sS'7936'
p249
I1
sS'9187'
p250
I1
sS'9755'
p251
I1
sS'38632'
p252
I1
sS'84834'
p253
I1
sS'9598'
p254
I4
sS'8400'
p255
I6
sS'8276'
p256
I1
sS'54072'
p257
I1
sS'41568'
p258
I2
sS'9188'
p259
I1
sS'9986'
p260
I1
sS'8068'
p261
I1
sS'28377'
p262
I3
sS'106656'
p263
I1
sS'127582'
p264
I1
sS'693431'
p265
I1
sS'43650'
p266
I1
sS'48435'
p267
I1
sS'663534'
p268
I1
sS'9606'
p269
I15
sS'141976'
p270
I1
sS'142466'
p271
I1
sS'7668'
p272
I1
sS'7102'
p273
I3
sS'6735'
p274
I1
sS'86377'
p275
I1
sS'8790'
p276
I3
sS'3704'
p277
I1
sS'8797'
p278
I1
sS'7962'
p279
I1
sS'36674'
p280
I2
sS'740705'
p281
I1
sS'7740'
p282
I1
sS'6239'
p283
I1
sS'9752'
p284
I1
sS'7748'
p285
I1
sS'7460'
p286
I4
sS'37605'
p287
I1
sS'61674'
p288
I4
ssS'Brain, Behavior and Evolution'
p289
(dp290
S'8422'
p291
I3
sS'10068'
p292
I1
sS'59729'
p293
I1
sS'8153'
p294
I1
sS'9031'
p295
I1
sS'84834'
p296
I1
sS'9598'
p297
I1
sS'60746'
p298
I1
sS'8400'
p299
I3
sS'30427'
p300
I1
sS'67771'
p301
I1
sS'67773'
p302
I1
sS'9258'
p303
I1
sS'9606'
p304
I3
sS'283763'
p305
I1
sS'8790'
p306
I1
sS'9172'
p307
I1
sS'48849'
p308
I1
sS'10095'
p309
I1
sS'10094'
p310
I1
sS'6500'
p311
I3
sS'163112'
p312
I1
sS'6239'
p313
I1
sS'47245'
p314
I1
sS'7460'
p315
I1
ssS'The Neuroscientist: a review journal bringing neurobiology, neurology and psychiatry'
p316
(dp317
S'10090?0.3754925237595992'
p318
I12
sS'10090'
p319
I7
sS'12721?0.9873544761140104'
p320
I1
sS'9606'
p321
I60
sS'3483'
p322
I1
sS'10376'
p323
I1
sS'7955'
p324
I1
sS'405018'
p325
I1
sS'10116'
p326
I7
sS'7460'
p327
I2
sS'9685'
p328
I2
sS'10632'
p329
I1
ssS'Nature reviews. Neuroscience'
p330
(dp331
S'10090?0.3754925237595992'
p332
I2
sS'9913'
p333
I1
sS'10090'
p334
I14
sS'12721?0.9873544761140104'
p335
I3
sS'435638'
p336
I1
sS'9606'
p337
I82
sS'99490?0.0493339911198816'
p338
I1
sS'4932'
p339
I1
sS'76434'
p340
I1
sS'9689'
p341
I1
sS'7740'
p342
I1
sS'6239'
p343
I1
sS'7227'
p344
I7
sS'10116'
p345
I2
sS'9940'
p346
I1
sS'4097'
p347
I1
sS'12721'
p348
I1
ssS'The International journal of neuroscience'
p349
(dp350
S'10141'
p351
I2
sS'9615'
p352
I1
sS'10298'
p353
I1
sS'103820'
p354
I1
sS'3635'
p355
I1
sS'10274?0.05'
p356
I1
sS'9103'
p357
I7
sS'10047'
p358
I1
sS'7957'
p359
I1
sS'10116'
p360
I143
sS'7955'
p361
I1
sS'4456'
p362
I2
sS'9654'
p363
I1
sS'4097'
p364
I1
sS'39329'
p365
I3
sS'39367'
p366
I1
sS'1313'
p367
I1
sS'10090?0.3754925237595992'
p368
I21
sS'9986'
p369
I3
sS'210'
p370
I1
sS'112509?0.015863859244303433'
p371
I1
sS'83558'
p372
I1
sS'9685'
p373
I4
sS'138950'
p374
I1
sS'31658'
p375
I1
sS'12721?0.9873544761140104'
p376
I5
sS'2708'
p377
I2
sS'9606'
p378
I68
sS'94188'
p379
I1
sS'9913'
p380
I1
sS'34256'
p381
I1
sS'73200'
p382
I1
sS'9823'
p383
I2
sS'4502'
p384
I2
sS'3311'
p385
I2
sS'10036'
p386
I2
sS'12721'
p387
I2
sS'10090'
p388
I17
sS'4682'
p389
I1
sS'8932'
p390
I1
sS'10095'
p391
I4
sS'11676?0.8769782024484921'
p392
I2
sS'29546?0.0015368852459016393'
p393
I3
sS'3847'
p394
I1
sS'11292'
p395
I2
sS'5811'
p396
I3
sS'61674'
p397
I1
ssS'Trends in cognitive sciences'
p398
(dp399
S'10090'
p400
I1
sS'7227'
p401
I1
sS'9606'
p402
I149
sS'3750'
p403
I1
sS'111938'
p404
I1
sS'9615'
p405
I3
sS'9031'
p406
I1
sS'4456'
p407
I5
sS'405018'
p408
I3
sS'10116'
p409
I4
sS'185542'
p410
I1
sS'9685'
p411
I1
sS'9598'
p412
I3
ssS'Journal of neuroscience research'
p413
(dp414
S'3922'
p415
I1
sS'10298'
p416
I2
sS'381124'
p417
I1
sS'12305?0.03296277145811789'
p418
I4
sS'7957'
p419
I1
sS'9986'
p420
I11
sS'110766?8.856774965472599E-4'
p421
I2
sS'7227'
p422
I1
sS'302767'
p423
I2
sS'405018'
p424
I1
sS'341683'
p425
I3
sS'9685'
p426
I5
sS'1313'
p427
I3
sS'48106'
p428
I1
sS'6997'
p429
I1
sS'10359'
p430
I2
sS'43575'
p431
I1
sS'7962'
p432
I1
sS'11276'
p433
I2
sS'94328'
p434
I1
sS'9823'
p435
I4
sS'10116'
p436
I758
sS'314391?3.3971100299673635E-4'
p437
I2
sS'11676'
p438
I6
sS'10537?0.03374233128834356'
p439
I1
sS'8305'
p440
I2
sS'29546?0.0015368852459016393'
p441
I2
sS'7955'
p442
I6
sS'165353'
p443
I1
sS'42757'
p444
I1
sS'10535'
p445
I11
sS'197'
p446
I3
sS'10047'
p447
I4
sS'9999'
p448
I2
sS'274'
p449
I1
sS'9995'
p450
I1
sS'39367'
p451
I1
sS'9913'
p452
I15
sS'9606'
p453
I348
sS'44586'
p454
I1
sS'9544'
p455
I2
sS'3311'
p456
I1
sS'10298?0.9377676277476449'
p457
I4
sS'9521'
p458
I1
sS'9483'
p459
I4
sS'7787'
p460
I1
sS'10036'
p461
I1
sS'70862'
p462
I1
sS'9395'
p463
I1
sS'4054'
p464
I2
sS'6500'
p465
I1
sS'124350'
p466
I1
sS'83558'
p467
I1
sS'10633'
p468
I2
sS'10141'
p469
I14
sS'272636'
p470
I2
sS'6536'
p471
I2
sS'3702'
p472
I1
sS'9031'
p473
I26
sS'10029'
p474
I3
sS'10794'
p475
I1
sS'31658'
p476
I4
sS'10090?0.3754925237595992'
p477
I185
sS'1639'
p478
I1
sS'4530'
p479
I1
sS'8319'
p480
I1
sS'12721'
p481
I10
sS'10366?0.7619047619047619'
p482
I1
sS'10152'
p483
I1
sS'12721?0.9873544761140104'
p484
I15
sS'10633?0.9966199903428296'
p485
I2
sS'10310'
p486
I1
sS'562'
p487
I4
sS'6523'
p488
I2
sS'9860'
p489
I2
sS'3885'
p490
I3
sS'4932'
p491
I10
sS'10090'
p492
I384
sS'10095'
p493
I28
sS'11676?0.8769782024484921'
p494
I13
sS'9940'
p495
I3
sS'4456'
p496
I2
sS'4081'
p497
I2
sS'9615'
p498
I1
sS'4565'
p499
I2
sS'355332'
p500
I1
sS'48139'
p501
I1
sS'11320'
p502
I1
sS'262676'
p503
I1
sS'8404'
p504
I1
sS'41568'
p505
I3
sS'136222'
p506
I1
sS'384659'
p507
I1
sS'458696'
p508
I1
sS'4097'
p509
I2
sS'8164'
p510
I1
sS'44689'
p511
I1
sS'10376'
p512
I1
sS'191921'
p513
I1
sS'3704'
p514
I4
sS'31931'
p515
I3
sS'1280'
p516
I2
sS'10368?0.8761061946902655'
p517
I1
sS'39059'
p518
I1
sS'6239'
p519
I4
sS'9696'
p520
I1
ssS'ACS chemical neuroscience'
p521
(dp522
sS'Acta neuropathologica'
p523
(dp524
S'3922'
p525
I1
sS'11232?0.9015317286652079'
p526
I3
sS'9615'
p527
I8
sS'272636'
p528
I1
sS'9823'
p529
I1
sS'12331?0.0041022404544020195'
p530
I1
sS'12305?0.03296277145811789'
p531
I1
sS'3635'
p532
I2
sS'10141'
p533
I1
sS'10047'
p534
I1
sS'10116'
p535
I55
sS'9031'
p536
I1
sS'10376'
p537
I1
sS'121791'
p538
I1
sS'1313'
p539
I1
sS'41568'
p540
I5
sS'10804?0.6129032258064516'
p541
I1
sS'10090?0.3754925237595992'
p542
I32
sS'9913'
p543
I7
sS'10629?0.9737827715355806'
p544
I1
sS'4679'
p545
I2
sS'63330'
p546
I1
sS'119431'
p547
I1
sS'10629'
p548
I1
sS'3850'
p549
I1
sS'9544'
p550
I1
sS'9685'
p551
I5
sS'9541'
p552
I1
sS'153659'
p553
I1
sS'12721?0.9873544761140104'
p554
I3
sS'405018'
p555
I4
sS'10633?0.9966199903428296'
p556
I1
sS'9606'
p557
I199
sS'94188'
p558
I1
sS'562'
p559
I1
sS'10359'
p560
I1
sS'136217'
p561
I1
sS'4565'
p562
I1
sS'9844'
p563
I1
sS'9986'
p564
I1
sS'11082'
p565
I1
sS'11232'
p566
I3
sS'10036'
p567
I2
sS'10366?0.7619047619047619'
p568
I1
sS'12721'
p569
I3
sS'314391?3.3971100299673635E-4'
p570
I1
sS'4932'
p571
I1
sS'10090'
p572
I61
sS'746128'
p573
I1
sS'10095'
p574
I3
sS'11676?0.8769782024484921'
p575
I2
sS'3311'
p576
I1
sS'8895'
p577
I1
sS'111938'
p578
I1
sS'29546?0.0015368852459016393'
p579
I3
sS'9940'
p580
I4
sS'39059'
p581
I1
sS'9796'
p582
I3
sS'83558'
p583
I1
sS'11292'
p584
I3
sS'30538'
p585
I1
sS'10632'
p586
I4
sS'5811'
p587
I1
ssS'ACS Chemical Neuroscience'
p588
(dp589
S'314391?3.3971100299673635E-4'
p590
I1
sS'10090?0.3754925237595992'
p591
I10
sS'9986'
p592
I1
sS'10090'
p593
I5
sS'4097'
p594
I1
sS'10095'
p595
I4
sS'9606'
p596
I15
sS'3483'
p597
I1
sS'6500'
p598
I1
sS'33072'
p599
I1
sS'39395'
p600
I1
sS'6253'
p601
I1
sS'63363'
p602
I1
sS'7227'
p603
I2
sS'10116'
p604
I15
sS'6239'
p605
I1
sS'8355'
p606
I2
ssS'Brain: a journal of neurology'
p607
(dp608
S'3758'
p609
I2
sS'9615'
p610
I1
sS'272636'
p611
I2
sS'37162?0.34174508126603936'
p612
I1
sS'153659'
p613
I1
sS'8895'
p614
I1
sS'92438'
p615
I1
sS'9103'
p616
I2
sS'9986'
p617
I4
sS'7955'
p618
I4
sS'9031'
p619
I1
sS'10368'
p620
I1
sS'10029'
p621
I1
sS'1313'
p622
I2
sS'41568'
p623
I4
sS'10535'
p624
I1
sS'31658'
p625
I1
sS'10090?0.3754925237595992'
p626
I48
sS'9913'
p627
I1
sS'12440'
p628
I1
sS'10116'
p629
I113
sS'301928'
p630
I1
sS'11623'
p631
I1
sS'8616'
p632
I1
sS'405018'
p633
I8
sS'12305?0.03296277145811789'
p634
I1
sS'9544'
p635
I1
sS'35246?0.41732283464566927'
p636
I1
sS'9685'
p637
I7
sS'11673?1.0'
p638
I1
sS'31286'
p639
I1
sS'31285'
p640
I1
sS'3635'
p641
I1
sS'12721?0.9873544761140104'
p642
I5
sS'9606'
p643
I329
sS'94188'
p644
I2
sS'3483'
p645
I1
sS'10359'
p646
I2
sS'11673'
p647
I1
sS'38020'
p648
I1
sS'10376'
p649
I3
sS'4679'
p650
I1
sS'9483'
p651
I1
sS'12721'
p652
I3
sS'4230'
p653
I1
sS'12455'
p654
I1
sS'10090'
p655
I95
sS'162683'
p656
I4
sS'10095'
p657
I5
sS'11676'
p658
I1
sS'11676?0.8769782024484921'
p659
I3
sS'9534'
p660
I1
sS'6587?0.2878787878787879'
p661
I1
sS'10368?0.8761061946902655'
p662
I1
sS'111938'
p663
I2
sS'13337'
p664
I1
sS'29546?0.0015368852459016393'
p665
I1
sS'9940'
p666
I1
sS'9796'
p667
I1
sS'9925'
p668
I1
ss.