(dp0
S'Macaque'
p1
I29
sS'Non-Craniata'
p2
I650
sS'Mouse or Rat'
p3
I3288
sS'Fish'
p4
I106
sS'Other Mammal'
p5
I219
sS'Human'
p6
I1663
sS'Amphibean'
p7
I56
sS'Cat'
p8
I53
sS'Other Craniata'
p9
I152
sS'Other Primate'
p10
I21
s.